; Function Attrs: mustprogress nofree norecurse nosync nounwind willreturn memory(argmem: readwrite) uwtable
define hidden void @_ZN17opencv_tensorflow11GradientDef12InternalSwapEPS0_(ptr noundef nonnull align 8 captures(none) dereferenceable(40) %0, ptr noundef captures(none) %1) local_unnamed_addr #12 align 2 {
_ZNK6google8protobuf11MessageLite21GetArenaForAllocationEv.exit:
  %2 = getelementptr inbounds nuw i8, ptr %0, i64 8
  %3 = load i64, ptr %2, align 8, !tbaa !3
  %4 = getelementptr inbounds nuw i8, ptr %1, i64 8
  %5 = load i64, ptr %4, align 8, !tbaa !3
  store i64 %5, ptr %2, align 8, !tbaa !56
  store i64 %3, ptr %4, align 8, !tbaa !56
  %6 = getelementptr inbounds nuw i8, ptr %0, i64 16
  %7 = getelementptr inbounds nuw i8, ptr %1, i64 16
  %.sroa.0.0.copyload.i = load ptr, ptr %7, align 8, !tbaa !25
  %8 = load i64, ptr %6, align 8, !tbaa !25
  store i64 %8, ptr %7, align 8, !tbaa !25
  store ptr %.sroa.0.0.copyload.i, ptr %6, align 8, !tbaa !25
  %9 = getelementptr inbounds nuw i8, ptr %0, i64 24
  %10 = getelementptr inbounds nuw i8, ptr %1, i64 24
  %.sroa.0.0.copyload.i12 = load ptr, ptr %10, align 8, !tbaa !25
  %11 = load i64, ptr %9, align 8, !tbaa !25
  store i64 %11, ptr %10, align 8, !tbaa !25
  store ptr %.sroa.0.0.copyload.i12, ptr %9, align 8, !tbaa !25
  ret void
}